; Function Attrs: mustprogress nounwind uwtable
define void @_ZN8WasmEdge8Executor8Executor7memSizeERNS_7Runtime12StackManagerEj(ptr dead_on_unwind noalias nocapture writable writeonly sret(%"class.cxx20::expected.303") align 4 %0, ptr noundef nonnull align 8 dereferenceable(408) %1, ptr noundef nonnull align 8 dereferenceable(48) %2, i32 noundef %3) local_unnamed_addr #4 align 2 personality ptr @__gxx_personality_v0 {
  %5 = invoke noundef ptr @_ZNK8WasmEdge8Executor8Executor15getMemInstByIdxERNS_7Runtime12StackManagerEj(ptr noundef nonnull align 8 dereferenceable(408) %1, ptr noundef nonnull align 8 dereferenceable(48) %2, i32 noundef %3)
          to label %6 unwind label %11

6:                                                ; preds = %4
  %7 = icmp ne ptr %5, null
  tail call void @llvm.assume(i1 %7)
  %8 = getelementptr inbounds i8, ptr %5, i64 4
  %9 = load i32, ptr %8, align 4
  store i8 1, ptr %0, align 4
  %10 = getelementptr inbounds i8, ptr %0, i64 4
  store i32 %9, ptr %10, align 4
  ret void

11:                                               ; preds = %4
  %12 = landingpad { ptr, i32 }
          catch ptr null
  %13 = extractvalue { ptr, i32 } %12, 0
  tail call void @__clang_call_terminate(ptr %13) #24
  unreachable
}